target datalayout = "e-m:e-p270:32:32-p271:32:32-p272:64:64-i64:64-i128:128-f80:128-n8:16:32:64-S128"
target triple = "x86_64-pc-linux-gnu"

@g_displayLevel = internal global i32 2, align 4
@g_nbSeconds = internal global i32 3, align 4
@stderr = external global ptr, align 8
@.str = private unnamed_addr constant [56 x i8] c"- test >= %u seconds per compression / decompression -\0A\00", align 1

; Function Attrs: nounwind uwtable
define dso_local void @BMK_setNbSeconds(i32 noundef %0) #0 {
  %2 = alloca i32, align 4
  store i32 %0, ptr %2, align 4, !tbaa !4
  %3 = load i32, ptr %2, align 4, !tbaa !4
  store i32 %3, ptr @g_nbSeconds, align 4, !tbaa !4
  %4 = load i32, ptr @g_displayLevel, align 4, !tbaa !4
  %5 = icmp uge i32 %4, 3
  br i1 %5, label %6, label %10

6:                                                ; preds = %1
  %7 = load ptr, ptr @stderr, align 8, !tbaa !8
  %8 = load i32, ptr @g_nbSeconds, align 4, !tbaa !4
  %9 = call i32 (ptr, ptr, ...) @fprintf(ptr noundef %7, ptr noundef @.str, i32 noundef %8) #9
  br label %10

10:                                               ; preds = %6, %1
  ret void
}