; Function Attrs: nofree nounwind uwtable
define dso_local void @BMK_setNbSeconds(i32 noundef %0) local_unnamed_addr #1 {
  store i32 %0, ptr @g_nbSeconds, align 4, !tbaa !4
  %2 = load i32, ptr @g_displayLevel, align 4, !tbaa !4
  %3 = icmp ugt i32 %2, 2
  br i1 %3, label %4, label %7

4:                                                ; preds = %1
  %5 = load ptr, ptr @stderr, align 8, !tbaa !8
  %6 = tail call i32 (ptr, ptr, ...) @fprintf(ptr noundef %5, ptr noundef nonnull @.str, i32 noundef %0) #17
  br label %7

7:                                                ; preds = %4, %1
  ret void
}